target datalayout = "e-m:e-p270:32:32-p271:32:32-p272:64:64-i64:64-i128:128-f80:128-n8:16:32:64-S128"
target triple = "x86_64-pc-linux-gnu"

%struct.PHP_CRC32_CTX = type { i32 }

; Function Attrs: nounwind uwtable
define void @PHP_CRC32CUpdate(ptr noundef %0, ptr noundef %1, i64 noundef %2) #0 {
  %4 = alloca ptr, align 8
  %5 = alloca ptr, align 8
  %6 = alloca i64, align 8
  %7 = alloca i64, align 8
  store ptr %0, ptr %4, align 8
  store ptr %1, ptr %5, align 8
  store i64 %2, ptr %6, align 8
  store i64 0, ptr %7, align 8
  %8 = load ptr, ptr %4, align 8
  %9 = getelementptr inbounds %struct.PHP_CRC32_CTX, ptr %8, i32 0, i32 0
  %10 = load ptr, ptr %5, align 8
  %11 = load i64, ptr %6, align 8
  %12 = call i64 @crc32_x86_simd_update(i32 noundef 2, ptr noundef %9, ptr noundef %10, i64 noundef %11)
  %13 = load i64, ptr %7, align 8
  %14 = add i64 %13, %12
  store i64 %14, ptr %7, align 8
  br label %15

15:                                               ; preds = %40, %3
  %16 = load i64, ptr %7, align 8
  %17 = load i64, ptr %6, align 8
  %18 = icmp ult i64 %16, %17
  br i1 %18, label %19, label %43

19:                                               ; preds = %15
  %20 = load ptr, ptr %4, align 8
  %21 = getelementptr inbounds %struct.PHP_CRC32_CTX, ptr %20, i32 0, i32 0
  %22 = load i32, ptr %21, align 4
  %23 = lshr i32 %22, 8
  %24 = load ptr, ptr %4, align 8
  %25 = getelementptr inbounds %struct.PHP_CRC32_CTX, ptr %24, i32 0, i32 0
  %26 = load i32, ptr %25, align 4
  %27 = load ptr, ptr %5, align 8
  %28 = load i64, ptr %7, align 8
  %29 = getelementptr inbounds i8, ptr %27, i64 %28
  %30 = load i8, ptr %29, align 1
  %31 = zext i8 %30 to i32
  %32 = xor i32 %26, %31
  %33 = and i32 %32, 255
  %34 = zext i32 %33 to i64
  %35 = getelementptr inbounds [256 x i32], ptr @crc32c_table, i64 0, i64 %34
  %36 = load i32, ptr %35, align 4
  %37 = xor i32 %23, %36
  %38 = load ptr, ptr %4, align 8
  %39 = getelementptr inbounds %struct.PHP_CRC32_CTX, ptr %38, i32 0, i32 0
  store i32 %37, ptr %39, align 4
  br label %40

40:                                               ; preds = %19
  %41 = load i64, ptr %7, align 8
  %42 = add i64 %41, 1
  store i64 %42, ptr %7, align 8
  br label %15

43:                                               ; preds = %15
  ret void
}